; Function Attrs: mustprogress uwtable
define noundef nonnull align 8 dereferenceable(64) ptr @_ZN6icu_7513LocaleMatcher7Builder19setSupportedLocalesERNS_6Locale8IteratorE(ptr noundef nonnull returned align 8 dereferenceable(64) %this, ptr noundef nonnull align 8 dereferenceable(8) %locales) local_unnamed_addr #2 align 2 personality ptr @__gxx_personality_v0 {
entry:
  %0 = load i32, ptr %this, align 8
  %cmp.i.i = icmp slt i32 %0, 1
  br i1 %cmp.i.i, label %if.end.i, label %if.end

if.end.i:                                         ; preds = %entry
  %supportedLocales_.i = getelementptr inbounds i8, ptr %this, i64 8
  %1 = load ptr, ptr %supportedLocales_.i, align 8
  %cmp.not.i = icmp eq ptr %1, null
  br i1 %cmp.not.i, label %if.end3.i, label %_ZN6icu_7513LocaleMatcher7Builder21clearSupportedLocalesEv.exit

if.end3.i:                                        ; preds = %if.end.i
  %call4.i = tail call noundef ptr @_ZN6icu_757UMemorynwEm(i64 noundef 40) #15
  %new.isnull.i = icmp eq ptr %call4.i, null
  br i1 %new.isnull.i, label %new.cont.i, label %new.notnull.i

new.notnull.i:                                    ; preds = %if.end3.i
  invoke void @_ZN6icu_757UVectorC1EPFvPvEPFa8UElementS4_ER10UErrorCode(ptr noundef nonnull align 8 dereferenceable(40) %call4.i, ptr noundef nonnull @uprv_deleteUObject_75, ptr noundef null, ptr noundef nonnull align 4 dereferenceable(4) %this)
          to label %_ZN6icu_7512LocalPointerINS_7UVectorEEC2EPS1_R10UErrorCode.exit.i unwind label %lpad.i

new.cont.i:                                       ; preds = %if.end3.i
  %2 = load i32, ptr %this, align 8
  %cmp.i.i.i = icmp sgt i32 %2, 0
  br i1 %cmp.i.i.i, label %if.end, label %if.then.i.i

if.then.i.i:                                      ; preds = %new.cont.i
  store i32 7, ptr %this, align 8
  br label %if.end

_ZN6icu_7512LocalPointerINS_7UVectorEEC2EPS1_R10UErrorCode.exit.i: ; preds = %new.notnull.i
  %.pre.i = load i32, ptr %this, align 8
  %3 = icmp slt i32 %.pre.i, 1
  br i1 %3, label %cleanup.thread.i, label %delete.notnull.i.i

lpad.i:                                           ; preds = %new.notnull.i
  %4 = landingpad { ptr, i32 }
          cleanup
  tail call void @_ZN6icu_757UMemorydlEPv(ptr noundef nonnull %call4.i) #15
  resume { ptr, i32 } %4

cleanup.thread.i:                                 ; preds = %_ZN6icu_7512LocalPointerINS_7UVectorEEC2EPS1_R10UErrorCode.exit.i
  store ptr %call4.i, ptr %supportedLocales_.i, align 8
  br label %_ZN6icu_7513LocaleMatcher7Builder21clearSupportedLocalesEv.exit

delete.notnull.i.i:                               ; preds = %_ZN6icu_7512LocalPointerINS_7UVectorEEC2EPS1_R10UErrorCode.exit.i
  %vtable.i.i = load ptr, ptr %call4.i, align 8
  %vfn.i.i = getelementptr inbounds i8, ptr %vtable.i.i, i64 8
  %5 = load ptr, ptr %vfn.i.i, align 8
  tail call void %5(ptr noundef nonnull align 8 dereferenceable(40) %call4.i) #15
  br label %if.end

_ZN6icu_7513LocaleMatcher7Builder21clearSupportedLocalesEv.exit: ; preds = %cleanup.thread.i, %if.end.i
  %6 = phi ptr [ %call4.i, %cleanup.thread.i ], [ %1, %if.end.i ]
  tail call void @_ZN6icu_757UVector17removeAllElementsEv(ptr noundef nonnull align 8 dereferenceable(40) %6)
  %vtable17 = load ptr, ptr %locales, align 8
  %vfn18 = getelementptr inbounds i8, ptr %vtable17, i64 16
  %7 = load ptr, ptr %vfn18, align 8
  %call219 = tail call noundef signext i8 %7(ptr noundef nonnull align 8 dereferenceable(8) %locales)
  %tobool.not20 = icmp eq i8 %call219, 0
  %8 = load i32, ptr %this, align 8
  %cmp.i21 = icmp sgt i32 %8, 0
  %or.cond22 = select i1 %tobool.not20, i1 true, i1 %cmp.i21
  br i1 %or.cond22, label %if.end, label %while.body

while.body:                                       ; preds = %_ZN6icu_7513LocaleMatcher7Builder21clearSupportedLocalesEv.exit, %_ZN6icu_7512LocalPointerINS_6LocaleEEC2EPS1_R10UErrorCode.exit
  %vtable5 = load ptr, ptr %locales, align 8
  %vfn6 = getelementptr inbounds i8, ptr %vtable5, i64 24
  %9 = load ptr, ptr %vfn6, align 8
  %call7 = tail call noundef nonnull align 8 dereferenceable(217) ptr %9(ptr noundef nonnull align 8 dereferenceable(8) %locales)
  %call8 = tail call noundef ptr @_ZNK6icu_756Locale5cloneEv(ptr noundef nonnull align 8 dereferenceable(217) %call7)
  %cmp.i5 = icmp ne ptr %call8, null
  %10 = load i32, ptr %this, align 8
  %cmp.i.i6 = icmp sgt i32 %10, 0
  %or.cond.i = select i1 %cmp.i5, i1 true, i1 %cmp.i.i6
  br i1 %or.cond.i, label %_ZN6icu_7512LocalPointerINS_6LocaleEEC2EPS1_R10UErrorCode.exit, label %if.then.i7

if.then.i7:                                       ; preds = %while.body
  store i32 7, ptr %this, align 8
  br label %_ZN6icu_7512LocalPointerINS_6LocaleEEC2EPS1_R10UErrorCode.exit

_ZN6icu_7512LocalPointerINS_6LocaleEEC2EPS1_R10UErrorCode.exit: ; preds = %while.body, %if.then.i7
  %11 = load ptr, ptr %supportedLocales_.i, align 8
  tail call void @_ZN6icu_757UVector12adoptElementEPvR10UErrorCode(ptr noundef nonnull align 8 dereferenceable(40) %11, ptr noundef %call8, ptr noundef nonnull align 4 dereferenceable(4) %this)
  %vtable = load ptr, ptr %locales, align 8
  %vfn = getelementptr inbounds i8, ptr %vtable, i64 16
  %12 = load ptr, ptr %vfn, align 8
  %call2 = tail call noundef signext i8 %12(ptr noundef nonnull align 8 dereferenceable(8) %locales)
  %tobool.not = icmp eq i8 %call2, 0
  %13 = load i32, ptr %this, align 8
  %cmp.i = icmp sgt i32 %13, 0
  %or.cond = select i1 %tobool.not, i1 true, i1 %cmp.i
  br i1 %or.cond, label %if.end, label %while.body, !llvm.loop !6

if.end:                                           ; preds = %_ZN6icu_7512LocalPointerINS_6LocaleEEC2EPS1_R10UErrorCode.exit, %_ZN6icu_7513LocaleMatcher7Builder21clearSupportedLocalesEv.exit, %new.cont.i, %if.then.i.i, %delete.notnull.i.i, %entry
  ret ptr %this
}